target datalayout = "e-m:e-p270:32:32-p271:32:32-p272:64:64-i64:64-i128:128-f80:128-n8:16:32:64-S128"
target triple = "x86_64-pc-linux-gnu"

%struct.pmix_mca_base_component_2_1_0_t = type { i32, i32, i32, [16 x i8], i32, i32, i32, [32 x i8], i32, i32, i32, [64 x i8], i32, i32, i32, ptr, ptr, ptr, ptr, [32 x i8] }

@.str = private unnamed_addr constant [12 x i8] c"%s.%s.%d.%d\00", align 1

; Function Attrs: nounwind uwtable
define ptr @pmix_mca_base_component_to_string(ptr noundef %0) #0 {
  %2 = alloca ptr, align 8
  %3 = alloca ptr, align 8
  %4 = alloca ptr, align 8
  %5 = alloca i32, align 4
  store ptr %0, ptr %3, align 8, !tbaa !19
  call void @llvm.lifetime.start.p0(i64 8, ptr %4) #4
  store ptr null, ptr %4, align 8, !tbaa !25
  %6 = load ptr, ptr %3, align 8, !tbaa !19
  %7 = getelementptr inbounds nuw %struct.pmix_mca_base_component_2_1_0_t, ptr %6, i32 0, i32 7
  %8 = getelementptr inbounds [32 x i8], ptr %7, i64 0, i64 0
  %9 = load ptr, ptr %3, align 8, !tbaa !19
  %10 = getelementptr inbounds nuw %struct.pmix_mca_base_component_2_1_0_t, ptr %9, i32 0, i32 11
  %11 = getelementptr inbounds [64 x i8], ptr %10, i64 0, i64 0
  %12 = load ptr, ptr %3, align 8, !tbaa !19
  %13 = getelementptr inbounds nuw %struct.pmix_mca_base_component_2_1_0_t, ptr %12, i32 0, i32 12
  %14 = load i32, ptr %13, align 4, !tbaa !21
  %15 = load ptr, ptr %3, align 8, !tbaa !19
  %16 = getelementptr inbounds nuw %struct.pmix_mca_base_component_2_1_0_t, ptr %15, i32 0, i32 13
  %17 = load i32, ptr %16, align 8, !tbaa !23
  %18 = call i32 (ptr, ptr, ...) @asprintf(ptr noundef %4, ptr noundef @.str, ptr noundef %8, ptr noundef %11, i32 noundef %14, i32 noundef %17) #4
  %19 = icmp sgt i32 0, %18
  br i1 %19, label %20, label %21

20:                                               ; preds = %1
  store ptr null, ptr %2, align 8
  store i32 1, ptr %5, align 4
  br label %23

21:                                               ; preds = %1
  %22 = load ptr, ptr %4, align 8, !tbaa !25
  store ptr %22, ptr %2, align 8
  store i32 1, ptr %5, align 4
  br label %23

23:                                               ; preds = %21, %20
  call void @llvm.lifetime.end.p0(i64 8, ptr %4) #4
  %24 = load ptr, ptr %2, align 8
  ret ptr %24
}