; Function Attrs: nounwind uwtable
define ptr @pmix_mca_base_component_to_string(ptr noundef %0) local_unnamed_addr #4 {
  %2 = alloca ptr, align 8
  call void @llvm.lifetime.start.p0(i64 8, ptr nonnull %2) #7
  store ptr null, ptr %2, align 8, !tbaa !21
  %3 = getelementptr inbounds nuw i8, ptr %0, i64 40
  %4 = getelementptr inbounds nuw i8, ptr %0, i64 84
  %5 = getelementptr inbounds nuw i8, ptr %0, i64 148
  %6 = load i32, ptr %5, align 4, !tbaa !17
  %7 = getelementptr inbounds nuw i8, ptr %0, i64 152
  %8 = load i32, ptr %7, align 8, !tbaa !19
  %9 = call i32 (ptr, ptr, ...) @asprintf(ptr noundef nonnull %2, ptr noundef nonnull @.str, ptr noundef nonnull %3, ptr noundef nonnull %4, i32 noundef %6, i32 noundef %8) #7
  %10 = icmp slt i32 %9, 0
  %11 = load ptr, ptr %2, align 8
  %.0 = select i1 %10, ptr null, ptr %11
  call void @llvm.lifetime.end.p0(i64 8, ptr nonnull %2) #7
  ret ptr %.0
}